target datalayout = "e-m:e-p270:32:32-p271:32:32-p272:64:64-i64:64-i128:128-f80:128-n8:16:32:64-S128"
target triple = "x86_64-pc-linux-gnu"

@.str = private unnamed_addr constant [69 x i8] c"failed to bind huge (1GiB) pages to numa node %d (error: %d (0x%x))\0A\00", align 1
@unix_mmap.large_page_try_ok = internal global i64 0, align 8
@unix_mmap.mi_huge_pages_available = internal global i8 1, align 1
@.str.4 = private unnamed_addr constant [84 x i8] c"unable to allocate huge (1GiB) page, trying large (2MiB) pages instead (errno: %i)\0A\00", align 1

; Function Attrs: nounwind uwtable
define internal i32 @unix_madvise(ptr noundef %0, i64 noundef %1, i32 noundef %2) #0 {
  %4 = alloca ptr, align 8
  %5 = alloca i64, align 8
  %6 = alloca i32, align 4
  %7 = alloca i32, align 4
  store ptr %0, ptr %4, align 8, !tbaa !25
  store i64 %1, ptr %5, align 8, !tbaa !8
  store i32 %2, ptr %6, align 4, !tbaa !19
  call void @llvm.lifetime.start.p0(i64 4, ptr %7) #6
  %8 = load ptr, ptr %4, align 8, !tbaa !25
  %9 = load i64, ptr %5, align 8, !tbaa !8
  %10 = load i32, ptr %6, align 4, !tbaa !19
  %11 = call i32 @madvise(ptr noundef %8, i64 noundef %9, i32 noundef %10) #7
  store i32 %11, ptr %7, align 4, !tbaa !19
  %12 = load i32, ptr %7, align 4, !tbaa !19
  %13 = icmp eq i32 %12, 0
  br i1 %13, label %14, label %15

14:                                               ; preds = %3
  br label %18

15:                                               ; preds = %3
  %16 = call ptr @__errno_location() #9
  %17 = load i32, ptr %16, align 4, !tbaa !19
  br label %18

18:                                               ; preds = %15, %14
  %19 = phi i32 [ 0, %14 ], [ %17, %15 ]
  call void @llvm.lifetime.end.p0(i64 4, ptr %7) #6
  ret i32 %19
}

; Function Attrs: nounwind uwtable
define internal i32 @unix_mmap_fd() #0 {
  ret i32 -1
}

; Function Attrs: nounwind uwtable
define internal i64 @mi_prim_mbind(ptr noundef %0, i64 noundef %1, i64 noundef %2, ptr noundef %3, i64 noundef %4, i32 noundef %5) #0 {
  %7 = alloca ptr, align 8
  %8 = alloca i64, align 8
  %9 = alloca i64, align 8
  %10 = alloca ptr, align 8
  %11 = alloca i64, align 8
  %12 = alloca i32, align 4
  store ptr %0, ptr %7, align 8, !tbaa !25
  store i64 %1, ptr %8, align 8, !tbaa !8
  store i64 %2, ptr %9, align 8, !tbaa !8
  store ptr %3, ptr %10, align 8, !tbaa !30
  store i64 %4, ptr %11, align 8, !tbaa !8
  store i32 %5, ptr %12, align 4, !tbaa !19
  %13 = load ptr, ptr %7, align 8, !tbaa !25
  %14 = load i64, ptr %8, align 8, !tbaa !8
  %15 = load i64, ptr %9, align 8, !tbaa !8
  %16 = load ptr, ptr %10, align 8, !tbaa !30
  %17 = load i64, ptr %11, align 8, !tbaa !8
  %18 = load i32, ptr %12, align 4, !tbaa !19
  %19 = call i64 (i64, ...) @syscall(i64 noundef 237, ptr noundef %13, i64 noundef %14, i64 noundef %15, ptr noundef %16, i64 noundef %17, i32 noundef %18) #7
  ret i64 %19
}

; Function Attrs: nounwind uwtable
define internal ptr @unix_mmap(ptr noundef %0, i64 noundef %1, i64 noundef %2, i32 noundef %3, i1 noundef zeroext %4, i1 noundef zeroext %5, ptr noundef %6) #0 {
  %8 = alloca ptr, align 8
  %9 = alloca ptr, align 8
  %10 = alloca i64, align 8
  %11 = alloca i64, align 8
  %12 = alloca i32, align 4
  %13 = alloca i8, align 1
  %14 = alloca i8, align 1
  %15 = alloca ptr, align 8
  %16 = alloca ptr, align 8
  %17 = alloca i32, align 4
  %18 = alloca i32, align 4
  %19 = alloca i64, align 8
  %20 = alloca i64, align 8
  %21 = alloca i64, align 8
  %22 = alloca i8, align 1
  %23 = alloca i32, align 4
  %24 = alloca i32, align 4
  %25 = alloca i32, align 4
  %26 = alloca i64, align 8
  store ptr %0, ptr %9, align 8, !tbaa !25
  store i64 %1, ptr %10, align 8, !tbaa !8
  store i64 %2, ptr %11, align 8, !tbaa !8
  store i32 %3, ptr %12, align 4, !tbaa !19
  %27 = zext i1 %4 to i8
  store i8 %27, ptr %13, align 1, !tbaa !21
  %28 = zext i1 %5 to i8
  store i8 %28, ptr %14, align 1, !tbaa !21
  store ptr %6, ptr %15, align 8, !tbaa !26
  call void @llvm.lifetime.start.p0(i64 8, ptr %16) #6
  store ptr null, ptr %16, align 8, !tbaa !25
  call void @llvm.lifetime.start.p0(i64 4, ptr %17) #6
  %29 = call i32 @unix_mmap_fd() #8
  store i32 %29, ptr %17, align 4, !tbaa !19
  call void @llvm.lifetime.start.p0(i64 4, ptr %18) #6
  store i32 34, ptr %18, align 4, !tbaa !19
  %30 = call zeroext i1 @_mi_os_has_overcommit() #8
  br i1 %30, label %31, label %34

31:                                               ; preds = %7
  %32 = load i32, ptr %18, align 4, !tbaa !19
  %33 = or i32 %32, 16384
  store i32 %33, ptr %18, align 4, !tbaa !19
  br label %34

34:                                               ; preds = %31, %7
  %35 = load i8, ptr %14, align 1, !tbaa !21, !range !23, !noundef !24
  %36 = trunc i8 %35 to i1
  br i1 %36, label %37, label %145

37:                                               ; preds = %34
  %38 = load i8, ptr %13, align 1, !tbaa !21, !range !23, !noundef !24
  %39 = trunc i8 %38 to i1
  br i1 %39, label %47, label %40

40:                                               ; preds = %37
  %41 = load i64, ptr %10, align 8, !tbaa !8
  %42 = load i64, ptr %11, align 8, !tbaa !8
  %43 = call zeroext i1 @_mi_os_use_large_page(i64 noundef %41, i64 noundef %42) #8
  br i1 %43, label %44, label %145

44:                                               ; preds = %40
  %45 = call i64 @mi_option_get(i32 noundef 6) #8
  %46 = icmp eq i64 %45, 1
  br i1 %46, label %47, label %145

47:                                               ; preds = %44, %37
  call void @llvm.lifetime.start.p0(i64 8, ptr %19) #6
  %48 = load atomic i64, ptr @unix_mmap.large_page_try_ok acquire, align 8
  store i64 %48, ptr %20, align 8
  %49 = load i64, ptr %20, align 8, !tbaa !8
  store i64 %49, ptr %19, align 8, !tbaa !8
  %50 = load i8, ptr %13, align 1, !tbaa !21, !range !23, !noundef !24
  %51 = trunc i8 %50 to i1
  br i1 %51, label %66, label %52

52:                                               ; preds = %47
  %53 = load i64, ptr %19, align 8, !tbaa !8
  %54 = icmp ugt i64 %53, 0
  br i1 %54, label %55, label %66

55:                                               ; preds = %52
  %56 = load i64, ptr %19, align 8, !tbaa !8
  %57 = sub i64 %56, 1
  store i64 %57, ptr %21, align 8, !tbaa !8
  %58 = load i64, ptr %19, align 8
  %59 = load i64, ptr %21, align 8
  %60 = cmpxchg ptr @unix_mmap.large_page_try_ok, i64 %58, i64 %59 acq_rel acquire, align 8
  %61 = extractvalue { i64, i1 } %60, 0
  %62 = extractvalue { i64, i1 } %60, 1
  br i1 %62, label %64, label %63

63:                                               ; preds = %55
  store i64 %61, ptr %19, align 8
  br label %64

64:                                               ; preds = %63, %55
  %65 = zext i1 %62 to i8
  store i8 %65, ptr %22, align 1, !tbaa !21
  br label %141

66:                                               ; preds = %52, %47
  call void @llvm.lifetime.start.p0(i64 4, ptr %23) #6
  %67 = load i32, ptr %18, align 4, !tbaa !19
  %68 = and i32 %67, -16385
  store i32 %68, ptr %23, align 4, !tbaa !19
  call void @llvm.lifetime.start.p0(i64 4, ptr %24) #6
  %69 = load i32, ptr %17, align 4, !tbaa !19
  store i32 %69, ptr %24, align 4, !tbaa !19
  %70 = load i32, ptr %23, align 4, !tbaa !19
  %71 = or i32 %70, 262144
  store i32 %71, ptr %23, align 4, !tbaa !19
  %72 = load i8, ptr %13, align 1, !tbaa !21, !range !23, !noundef !24
  %73 = trunc i8 %72 to i1
  br i1 %73, label %74, label %84

74:                                               ; preds = %66
  %75 = load i64, ptr %10, align 8, !tbaa !8
  %76 = urem i64 %75, 1073741824
  %77 = icmp eq i64 %76, 0
  br i1 %77, label %78, label %84

78:                                               ; preds = %74
  %79 = load i8, ptr @unix_mmap.mi_huge_pages_available, align 1, !tbaa !21, !range !23, !noundef !24
  %80 = trunc i8 %79 to i1
  br i1 %80, label %81, label %84

81:                                               ; preds = %78
  %82 = load i32, ptr %23, align 4, !tbaa !19
  %83 = or i32 %82, 2013265920
  store i32 %83, ptr %23, align 4, !tbaa !19
  br label %87

84:                                               ; preds = %78, %74, %66
  %85 = load i32, ptr %23, align 4, !tbaa !19
  %86 = or i32 %85, 1409286144
  store i32 %86, ptr %23, align 4, !tbaa !19
  br label %87

87:                                               ; preds = %84, %81
  %88 = load i8, ptr %13, align 1, !tbaa !21, !range !23, !noundef !24
  %89 = trunc i8 %88 to i1
  br i1 %89, label %94, label %90

90:                                               ; preds = %87
  %91 = load i32, ptr %23, align 4, !tbaa !19
  %92 = load i32, ptr %18, align 4, !tbaa !19
  %93 = icmp ne i32 %91, %92
  br i1 %93, label %94, label %137

94:                                               ; preds = %90, %87
  %95 = load ptr, ptr %15, align 8, !tbaa !26
  store i8 1, ptr %95, align 1, !tbaa !21
  %96 = load ptr, ptr %9, align 8, !tbaa !25
  %97 = load i64, ptr %10, align 8, !tbaa !8
  %98 = load i64, ptr %11, align 8, !tbaa !8
  %99 = load i32, ptr %12, align 4, !tbaa !19
  %100 = load i32, ptr %23, align 4, !tbaa !19
  %101 = load i32, ptr %24, align 4, !tbaa !19
  %102 = call ptr @unix_mmap_prim(ptr noundef %96, i64 noundef %97, i64 noundef %98, i32 noundef %99, i32 noundef %100, i32 noundef %101) #8
  store ptr %102, ptr %16, align 8, !tbaa !25
  %103 = load ptr, ptr %16, align 8, !tbaa !25
  %104 = icmp eq ptr %103, null
  br i1 %104, label %105, label %126

105:                                              ; preds = %94
  %106 = load i32, ptr %23, align 4, !tbaa !19
  %107 = and i32 %106, 2013265920
  %108 = icmp eq i32 %107, 2013265920
  br i1 %108, label %109, label %126

109:                                              ; preds = %105
  store i8 0, ptr @unix_mmap.mi_huge_pages_available, align 1, !tbaa !21
  %110 = load i8, ptr %13, align 1, !tbaa !21, !range !23, !noundef !24
  %111 = trunc i8 %110 to i1
  br i1 %111, label %112, label %115

112:                                              ; preds = %109
  %113 = call ptr @__errno_location() #9
  %114 = load i32, ptr %113, align 4, !tbaa !19
  call void (ptr, ...) @_mi_warning_message(ptr noundef @.str.4, i32 noundef %114) #8
  br label %115

115:                                              ; preds = %112, %109
  %116 = load i32, ptr %23, align 4, !tbaa !19
  %117 = and i32 %116, -2013265921
  %118 = or i32 %117, 1409286144
  store i32 %118, ptr %23, align 4, !tbaa !19
  %119 = load ptr, ptr %9, align 8, !tbaa !25
  %120 = load i64, ptr %10, align 8, !tbaa !8
  %121 = load i64, ptr %11, align 8, !tbaa !8
  %122 = load i32, ptr %12, align 4, !tbaa !19
  %123 = load i32, ptr %23, align 4, !tbaa !19
  %124 = load i32, ptr %24, align 4, !tbaa !19
  %125 = call ptr @unix_mmap_prim(ptr noundef %119, i64 noundef %120, i64 noundef %121, i32 noundef %122, i32 noundef %123, i32 noundef %124) #8
  store ptr %125, ptr %16, align 8, !tbaa !25
  br label %126

126:                                              ; preds = %115, %105, %94
  %127 = load i8, ptr %13, align 1, !tbaa !21, !range !23, !noundef !24
  %128 = trunc i8 %127 to i1
  br i1 %128, label %129, label %131

129:                                              ; preds = %126
  %130 = load ptr, ptr %16, align 8, !tbaa !25
  store ptr %130, ptr %8, align 8
  store i32 1, ptr %25, align 4
  br label %138

131:                                              ; preds = %126
  %132 = load ptr, ptr %16, align 8, !tbaa !25
  %133 = icmp eq ptr %132, null
  br i1 %133, label %134, label %136

134:                                              ; preds = %131
  store i64 8, ptr %26, align 8, !tbaa !8
  %135 = load i64, ptr %26, align 8
  store atomic i64 %135, ptr @unix_mmap.large_page_try_ok release, align 8
  br label %136

136:                                              ; preds = %134, %131
  br label %137

137:                                              ; preds = %136, %90
  store i32 0, ptr %25, align 4
  br label %138

138:                                              ; preds = %137, %129
  call void @llvm.lifetime.end.p0(i64 4, ptr %24) #6
  call void @llvm.lifetime.end.p0(i64 4, ptr %23) #6
  %139 = load i32, ptr %25, align 4
  switch i32 %139, label %142 [
    i32 0, label %140
  ]

140:                                              ; preds = %138
  br label %141

141:                                              ; preds = %140, %64
  store i32 0, ptr %25, align 4
  br label %142

142:                                              ; preds = %141, %138
  call void @llvm.lifetime.end.p0(i64 8, ptr %19) #6
  %143 = load i32, ptr %25, align 4
  switch i32 %143, label %177 [
    i32 0, label %144
  ]

144:                                              ; preds = %142
  br label %145

145:                                              ; preds = %144, %44, %40, %34
  %146 = load ptr, ptr %16, align 8, !tbaa !25
  %147 = icmp eq ptr %146, null
  br i1 %147, label %148, label %175

148:                                              ; preds = %145
  %149 = load ptr, ptr %15, align 8, !tbaa !26
  store i8 0, ptr %149, align 1, !tbaa !21
  %150 = load ptr, ptr %9, align 8, !tbaa !25
  %151 = load i64, ptr %10, align 8, !tbaa !8
  %152 = load i64, ptr %11, align 8, !tbaa !8
  %153 = load i32, ptr %12, align 4, !tbaa !19
  %154 = load i32, ptr %18, align 4, !tbaa !19
  %155 = load i32, ptr %17, align 4, !tbaa !19
  %156 = call ptr @unix_mmap_prim(ptr noundef %150, i64 noundef %151, i64 noundef %152, i32 noundef %153, i32 noundef %154, i32 noundef %155) #8
  store ptr %156, ptr %16, align 8, !tbaa !25
  %157 = load ptr, ptr %16, align 8, !tbaa !25
  %158 = icmp ne ptr %157, null
  br i1 %158, label %159, label %174

159:                                              ; preds = %148
  %160 = load i8, ptr %14, align 1, !tbaa !21, !range !23, !noundef !24
  %161 = trunc i8 %160 to i1
  br i1 %161, label %162, label %173

162:                                              ; preds = %159
  %163 = load i64, ptr %10, align 8, !tbaa !8
  %164 = load i64, ptr %11, align 8, !tbaa !8
  %165 = call zeroext i1 @_mi_os_use_large_page(i64 noundef %163, i64 noundef %164) #8
  br i1 %165, label %166, label %173

166:                                              ; preds = %162
  %167 = load ptr, ptr %16, align 8, !tbaa !25
  %168 = load i64, ptr %10, align 8, !tbaa !8
  %169 = call i32 @unix_madvise(ptr noundef %167, i64 noundef %168, i32 noundef 14) #8
  %170 = icmp eq i32 %169, 0
  br i1 %170, label %171, label %172

171:                                              ; preds = %166
  br label %172

172:                                              ; preds = %171, %166
  br label %173

173:                                              ; preds = %172, %162, %159
  br label %174

174:                                              ; preds = %173, %148
  br label %175

175:                                              ; preds = %174, %145
  %176 = load ptr, ptr %16, align 8, !tbaa !25
  store ptr %176, ptr %8, align 8
  store i32 1, ptr %25, align 4
  br label %177

177:                                              ; preds = %175, %142
  call void @llvm.lifetime.end.p0(i64 4, ptr %18) #6
  call void @llvm.lifetime.end.p0(i64 4, ptr %17) #6
  call void @llvm.lifetime.end.p0(i64 8, ptr %16) #6
  %178 = load ptr, ptr %8, align 8
  ret ptr %178
}

; Function Attrs: nounwind uwtable
define hidden i32 @_mi_prim_alloc_huge_os_pages(ptr noundef %0, i64 noundef %1, i32 noundef %2, ptr noundef %3, ptr noundef %4) #0 {
  %6 = alloca ptr, align 8
  %7 = alloca i64, align 8
  %8 = alloca i32, align 4
  %9 = alloca ptr, align 8
  %10 = alloca ptr, align 8
  %11 = alloca i8, align 1
  %12 = alloca i64, align 8
  %13 = alloca i64, align 8
  store ptr %0, ptr %6, align 8, !tbaa !25
  store i64 %1, ptr %7, align 8, !tbaa !8
  store i32 %2, ptr %8, align 4, !tbaa !19
  store ptr %3, ptr %9, align 8, !tbaa !26
  store ptr %4, ptr %10, align 8, !tbaa !25
  call void @llvm.lifetime.start.p0(i64 1, ptr %11) #6
  store i8 1, ptr %11, align 1, !tbaa !21
  %14 = load ptr, ptr %9, align 8, !tbaa !26
  store i8 1, ptr %14, align 1, !tbaa !21
  %15 = load ptr, ptr %6, align 8, !tbaa !25
  %16 = load i64, ptr %7, align 8, !tbaa !8
  %17 = call ptr @unix_mmap(ptr noundef %15, i64 noundef %16, i64 noundef 4194304, i32 noundef 3, i1 noundef zeroext true, i1 noundef zeroext true, ptr noundef %11) #8
  %18 = load ptr, ptr %10, align 8, !tbaa !25
  store ptr %17, ptr %18, align 8, !tbaa !25
  %19 = load ptr, ptr %10, align 8, !tbaa !25
  %20 = load ptr, ptr %19, align 8, !tbaa !25
  %21 = icmp ne ptr %20, null
  br i1 %21, label %22, label %46

22:                                               ; preds = %5
  %23 = load i32, ptr %8, align 4, !tbaa !19
  %24 = icmp sge i32 %23, 0
  br i1 %24, label %25, label %46

25:                                               ; preds = %22
  %26 = load i32, ptr %8, align 4, !tbaa !19
  %27 = icmp slt i32 %26, 64
  br i1 %27, label %28, label %46

28:                                               ; preds = %25
  call void @llvm.lifetime.start.p0(i64 8, ptr %12) #6
  %29 = load i32, ptr %8, align 4, !tbaa !19
  %30 = zext i32 %29 to i64
  %31 = shl i64 1, %30
  store i64 %31, ptr %12, align 8, !tbaa !8
  call void @llvm.lifetime.start.p0(i64 8, ptr %13) #6
  %32 = load ptr, ptr %10, align 8, !tbaa !25
  %33 = load ptr, ptr %32, align 8, !tbaa !25
  %34 = load i64, ptr %7, align 8, !tbaa !8
  %35 = call i64 @mi_prim_mbind(ptr noundef %33, i64 noundef %34, i64 noundef 1, ptr noundef %12, i64 noundef 64, i32 noundef 0) #8
  store i64 %35, ptr %13, align 8, !tbaa !8
  %36 = load i64, ptr %13, align 8, !tbaa !8
  %37 = icmp ne i64 %36, 0
  br i1 %37, label %38, label %45

38:                                               ; preds = %28
  %39 = call ptr @__errno_location() #9
  %40 = load i32, ptr %39, align 4, !tbaa !19
  %41 = sext i32 %40 to i64
  store i64 %41, ptr %13, align 8, !tbaa !8
  %42 = load i32, ptr %8, align 4, !tbaa !19
  %43 = load i64, ptr %13, align 8, !tbaa !8
  %44 = load i64, ptr %13, align 8, !tbaa !8
  call void (ptr, ...) @_mi_warning_message(ptr noundef @.str, i32 noundef %42, i64 noundef %43, i64 noundef %44) #8
  br label %45

45:                                               ; preds = %38, %28
  call void @llvm.lifetime.end.p0(i64 8, ptr %13) #6
  call void @llvm.lifetime.end.p0(i64 8, ptr %12) #6
  br label %46

46:                                               ; preds = %45, %25, %22, %5
  %47 = load ptr, ptr %10, align 8, !tbaa !25
  %48 = load ptr, ptr %47, align 8, !tbaa !25
  %49 = icmp ne ptr %48, null
  br i1 %49, label %50, label %51

50:                                               ; preds = %46
  br label %54

51:                                               ; preds = %46
  %52 = call ptr @__errno_location() #9
  %53 = load i32, ptr %52, align 4, !tbaa !19
  br label %54

54:                                               ; preds = %51, %50
  %55 = phi i32 [ 0, %50 ], [ %53, %51 ]
  call void @llvm.lifetime.end.p0(i64 1, ptr %11) #6
  ret i32 %55
}